; Function Attrs: mustprogress nofree norecurse nosync nounwind willreturn memory(read, inaccessiblemem: none) uwtable
define noundef ptr @_ZNK7rocksdb15BlockBasedTable13GetStatisticsEv(ptr nocapture noundef nonnull readonly align 8 dereferenceable(24) %this) local_unnamed_addr #15 align 2 {
entry:
  %rep_ = getelementptr inbounds i8, ptr %this, i64 8
  %0 = load ptr, ptr %rep_, align 8
  %1 = load ptr, ptr %0, align 8
  %stats = getelementptr inbounds i8, ptr %1, i64 536
  %2 = load ptr, ptr %stats, align 8
  ret ptr %2
}